target datalayout = "e-m:e-p270:32:32-p271:32:32-p272:64:64-i64:64-i128:128-f80:128-n8:16:32:64-S128"
target triple = "x86_64-pc-linux-gnu"

%struct.PROV_KDF_CTX = type { ptr, ptr, ptr }

@.str.1 = private unnamed_addr constant [57 x i8] c"../openssl/providers/implementations/exchange/kdf_exch.c\00", align 1
@__func__.kdf_derive = private unnamed_addr constant [11 x i8] c"kdf_derive\00", align 1

; Function Attrs: nounwind uwtable
define internal i32 @kdf_derive(ptr noundef %0, ptr noundef %1, ptr noundef %2, i64 noundef %3) #0 {
  %5 = alloca i32, align 4
  %6 = alloca ptr, align 8
  %7 = alloca ptr, align 8
  %8 = alloca ptr, align 8
  %9 = alloca i64, align 8
  %10 = alloca ptr, align 8
  %11 = alloca i64, align 8
  %12 = alloca i32, align 4
  %13 = alloca i32, align 4
  store ptr %0, ptr %6, align 8, !tbaa !3
  store ptr %1, ptr %7, align 8, !tbaa !13
  store ptr %2, ptr %8, align 8, !tbaa !15
  store i64 %3, ptr %9, align 8, !tbaa !17
  call void @llvm.lifetime.start.p0(i64 8, ptr %10) #4
  %14 = load ptr, ptr %6, align 8, !tbaa !3
  store ptr %14, ptr %10, align 8, !tbaa !3
  call void @llvm.lifetime.start.p0(i64 8, ptr %11) #4
  call void @llvm.lifetime.start.p0(i64 4, ptr %12) #4
  %15 = call i32 @ossl_prov_is_running()
  %16 = icmp ne i32 %15, 0
  br i1 %16, label %18, label %17

17:                                               ; preds = %4
  store i32 0, ptr %5, align 4
  store i32 1, ptr %13, align 4
  br label %51

18:                                               ; preds = %4
  %19 = load ptr, ptr %10, align 8, !tbaa !3
  %20 = getelementptr inbounds nuw %struct.PROV_KDF_CTX, ptr %19, i32 0, i32 1
  %21 = load ptr, ptr %20, align 8, !tbaa !19
  %22 = call i64 @EVP_KDF_CTX_get_kdf_size(ptr noundef %21)
  store i64 %22, ptr %11, align 8, !tbaa !17
  %23 = load ptr, ptr %7, align 8, !tbaa !13
  %24 = icmp eq ptr %23, null
  br i1 %24, label %25, label %28

25:                                               ; preds = %18
  %26 = load i64, ptr %11, align 8, !tbaa !17
  %27 = load ptr, ptr %8, align 8, !tbaa !15
  store i64 %26, ptr %27, align 8, !tbaa !17
  store i32 1, ptr %5, align 4
  store i32 1, ptr %13, align 4
  br label %51

28:                                               ; preds = %18
  %29 = load i64, ptr %11, align 8, !tbaa !17
  %30 = icmp ne i64 %29, -1
  br i1 %30, label %31, label %38

31:                                               ; preds = %28
  %32 = load i64, ptr %9, align 8, !tbaa !17
  %33 = load i64, ptr %11, align 8, !tbaa !17
  %34 = icmp ult i64 %32, %33
  br i1 %34, label %35, label %36

35:                                               ; preds = %31
  call void @ERR_new()
  call void @ERR_set_debug(ptr noundef @.str.1, i32 noundef 117, ptr noundef @__func__.kdf_derive)
  call void (i32, i32, ptr, ...) @ERR_set_error(i32 noundef 57, i32 noundef 106, ptr noundef null)
  store i32 0, ptr %5, align 4
  store i32 1, ptr %13, align 4
  br label %51

36:                                               ; preds = %31
  %37 = load i64, ptr %11, align 8, !tbaa !17
  store i64 %37, ptr %9, align 8, !tbaa !17
  br label %38

38:                                               ; preds = %36, %28
  %39 = load ptr, ptr %10, align 8, !tbaa !3
  %40 = getelementptr inbounds nuw %struct.PROV_KDF_CTX, ptr %39, i32 0, i32 1
  %41 = load ptr, ptr %40, align 8, !tbaa !19
  %42 = load ptr, ptr %7, align 8, !tbaa !13
  %43 = load i64, ptr %9, align 8, !tbaa !17
  %44 = call i32 @EVP_KDF_derive(ptr noundef %41, ptr noundef %42, i64 noundef %43, ptr noundef null)
  store i32 %44, ptr %12, align 4, !tbaa !20
  %45 = load i32, ptr %12, align 4, !tbaa !20
  %46 = icmp sle i32 %45, 0
  br i1 %46, label %47, label %48

47:                                               ; preds = %38
  store i32 0, ptr %5, align 4
  store i32 1, ptr %13, align 4
  br label %51

48:                                               ; preds = %38
  %49 = load i64, ptr %9, align 8, !tbaa !17
  %50 = load ptr, ptr %8, align 8, !tbaa !15
  store i64 %49, ptr %50, align 8, !tbaa !17
  store i32 1, ptr %5, align 4
  store i32 1, ptr %13, align 4
  br label %51

51:                                               ; preds = %48, %47, %35, %25, %17
  call void @llvm.lifetime.end.p0(i64 4, ptr %12) #4
  call void @llvm.lifetime.end.p0(i64 8, ptr %11) #4
  call void @llvm.lifetime.end.p0(i64 8, ptr %10) #4
  %52 = load i32, ptr %5, align 4
  ret i32 %52
}