; Function Attrs: nounwind uwtable
define internal range(i32 0, 2) i32 @kdf_derive(ptr noundef readonly captures(none) %0, ptr noundef %1, ptr noundef writeonly captures(none) %2, i64 noundef %3) #0 {
  %5 = tail call i32 @ossl_prov_is_running() #3
  %.not = icmp eq i32 %5, 0
  br i1 %.not, label %21, label %6

6:                                                ; preds = %4
  %7 = getelementptr inbounds nuw i8, ptr %0, i64 8
  %8 = load ptr, ptr %7, align 8, !tbaa !10
  %9 = tail call i64 @EVP_KDF_CTX_get_kdf_size(ptr noundef %8) #3
  %10 = icmp eq ptr %1, null
  br i1 %10, label %11, label %12

11:                                               ; preds = %6
  store i64 %9, ptr %2, align 8, !tbaa !11
  br label %21

12:                                               ; preds = %6
  %.not18 = icmp eq i64 %9, -1
  br i1 %.not18, label %16, label %13

13:                                               ; preds = %12
  %14 = icmp ult i64 %3, %9
  br i1 %14, label %15, label %16

15:                                               ; preds = %13
  tail call void @ERR_new() #3
  tail call void @ERR_set_debug(ptr noundef nonnull @.str.1, i32 noundef 117, ptr noundef nonnull @__func__.kdf_derive) #3
  tail call void (i32, i32, ptr, ...) @ERR_set_error(i32 noundef 57, i32 noundef 106, ptr noundef null) #3
  br label %21

16:                                               ; preds = %13, %12
  %.015 = phi i64 [ %3, %12 ], [ %9, %13 ]
  %17 = load ptr, ptr %7, align 8, !tbaa !10
  %18 = tail call i32 @EVP_KDF_derive(ptr noundef %17, ptr noundef nonnull %1, i64 noundef %.015, ptr noundef null) #3
  %19 = icmp slt i32 %18, 1
  br i1 %19, label %21, label %20

20:                                               ; preds = %16
  store i64 %.015, ptr %2, align 8, !tbaa !11
  br label %21

21:                                               ; preds = %16, %4, %20, %15, %11
  %.0 = phi i32 [ 1, %11 ], [ 0, %15 ], [ 1, %20 ], [ 0, %4 ], [ 0, %16 ]
  ret i32 %.0
}